; Function Attrs: nounwind uwtable
define noalias nonnull ptr @l_USize_ofBitVec___boxed(ptr noundef %0) local_unnamed_addr #0 {
  %2 = ptrtoint ptr %0 to i64
  %3 = and i64 %2, 1
  %.not.i2.i = icmp eq i64 %3, 0
  br i1 %.not.i2.i, label %5, label %lean_usize_of_nat.exit.thread.i

lean_usize_of_nat.exit.thread.i:                  ; preds = %1
  %4 = lshr i64 %2, 1
  br label %lean_usize_of_nat_mk.exit

5:                                                ; preds = %1
  %6 = tail call i64 @lean_usize_of_big_nat(ptr noundef %0) #11
  %7 = load i32, ptr %0, align 4, !tbaa !4
  %8 = icmp sgt i32 %7, 1
  br i1 %8, label %9, label %11, !prof !9

9:                                                ; preds = %5
  %10 = add nsw i32 %7, -1
  store i32 %10, ptr %0, align 4, !tbaa !4
  br label %lean_usize_of_nat_mk.exit

11:                                               ; preds = %5
  %.not.i.i = icmp eq i32 %7, 0
  br i1 %.not.i.i, label %lean_usize_of_nat_mk.exit, label %12

12:                                               ; preds = %11
  tail call void @lean_dec_ref_cold(ptr noundef nonnull %0) #11
  br label %lean_usize_of_nat_mk.exit

lean_usize_of_nat_mk.exit:                        ; preds = %lean_usize_of_nat.exit.thread.i, %9, %11, %12
  %13 = phi i64 [ %4, %lean_usize_of_nat.exit.thread.i ], [ %6, %9 ], [ %6, %11 ], [ %6, %12 ]
  tail call void @lean_inc_heartbeat() #11
  %14 = tail call noalias ptr @mi_malloc_small(i64 noundef 16) #11
  %15 = icmp eq ptr %14, null
  br i1 %15, label %16, label %lean_box_usize.exit

16:                                               ; preds = %lean_usize_of_nat_mk.exit
  tail call void @lean_internal_panic_out_of_memory() #12
  unreachable

lean_box_usize.exit:                              ; preds = %lean_usize_of_nat_mk.exit
  %17 = getelementptr inbounds nuw i8, ptr %14, i64 4
  store i32 1, ptr %14, align 4, !tbaa !4
  store i32 16, ptr %17, align 4
  %18 = getelementptr inbounds nuw i8, ptr %14, i64 8
  store i64 %13, ptr %18, align 8, !tbaa !17
  ret ptr %14
}